; Function Attrs: mustprogress uwtable
define dso_local noundef zeroext i1 @_ZNK3net16QuicCryptoStream20ExportKeyingMaterialEN4base16BasicStringPieceINSt7__cxx1112basic_stringIcSt11char_traitsIcESaIcEEEEES9_mPS8_(ptr noundef nonnull align 8 dereferenceable(1048) %this, ptr %label.coerce0, i64 %label.coerce1, ptr %context.coerce0, i64 %context.coerce1, i64 noundef %result_len, ptr noundef %result) local_unnamed_addr #0 align 2 {
entry:
  %agg.tmp = alloca %"class.base::BasicStringPiece", align 8
  %handshake_confirmed_.i = getelementptr inbounds i8, ptr %this, i64 393
  %0 = load i8, ptr %handshake_confirmed_.i, align 1
  %1 = and i8 %0, 1
  %tobool.i.not = icmp eq i8 %1, 0
  br i1 %tobool.i.not, label %return, label %if.end

if.end:                                           ; preds = %entry
  %subkey_secret = getelementptr inbounds i8, ptr %this, i64 504
  call void @_ZN4base16BasicStringPieceINSt7__cxx1112basic_stringIcSt11char_traitsIcESaIcEEEEC1ERKS6_(ptr noundef nonnull align 8 dereferenceable(16) %agg.tmp, ptr noundef nonnull align 8 dereferenceable(32) %subkey_secret)
  %2 = load ptr, ptr %agg.tmp, align 8
  %3 = getelementptr inbounds i8, ptr %agg.tmp, i64 8
  %4 = load i64, ptr %3, align 8
  %call4 = call noundef zeroext i1 @_ZN3net11CryptoUtils20ExportKeyingMaterialEN4base16BasicStringPieceINSt7__cxx1112basic_stringIcSt11char_traitsIcESaIcEEEEES9_S9_mPS8_(ptr %2, i64 %4, ptr %label.coerce0, i64 %label.coerce1, ptr %context.coerce0, i64 %context.coerce1, i64 noundef %result_len, ptr noundef %result)
  br label %return

return:                                           ; preds = %entry, %if.end
  %retval.0 = phi i1 [ %call4, %if.end ], [ false, %entry ]
  ret i1 %retval.0
}